; Function Attrs: nounwind sspstrong uwtable
define internal i64 @ossl_ts_req_get_algorithm(i64 noundef %0) #0 {
  %2 = alloca ptr, align 8
  call void @llvm.lifetime.start.p0(i64 8, ptr nonnull %2) #7
  %3 = tail call ptr @rb_check_typeddata(i64 noundef %0, ptr noundef nonnull @ossl_ts_req_type) #7
  %.not = icmp eq ptr %3, null
  br i1 %.not, label %4, label %6

4:                                                ; preds = %1
  %5 = load i64, ptr @rb_eRuntimeError, align 8, !tbaa !6
  tail call void (i64, ptr, ...) @ossl_raise(i64 noundef %5, ptr noundef nonnull @.str.57) #8
  unreachable

6:                                                ; preds = %1
  %7 = tail call ptr @TS_REQ_get_msg_imprint(ptr noundef nonnull %3) #7
  %8 = tail call ptr @TS_MSG_IMPRINT_get_algo(ptr noundef %7) #7
  call void @X509_ALGOR_get0(ptr noundef nonnull %2, ptr noundef null, ptr noundef null, ptr noundef %8) #7
  %9 = load ptr, ptr %2, align 8, !tbaa !50
  %10 = call fastcc i64 @get_asn1obj(ptr noundef %9)
  call void @llvm.lifetime.end.p0(i64 8, ptr nonnull %2) #7
  ret i64 %10
}